target datalayout = "e-m:e-p270:32:32-p271:32:32-p272:64:64-i64:64-i128:128-f80:128-n8:16:32:64-S128"
target triple = "x86_64-pc-linux-gnu"

%struct.DCADCTContext = type { [2 x ptr] }

; Function Attrs: alwaysinline nounwind willreturn memory(none) uwtable
define internal i32 @av_clip_intp2_c(i32 noundef %0, i32 noundef %1) #5 {
  %3 = alloca i32, align 4
  %4 = alloca i32, align 4
  %5 = alloca i32, align 4
  store i32 %0, ptr %4, align 4, !tbaa !23
  store i32 %1, ptr %5, align 4, !tbaa !23
  %6 = load i32, ptr %4, align 4, !tbaa !23
  %7 = load i32, ptr %5, align 4, !tbaa !23
  %8 = shl i32 1, %7
  %9 = add i32 %6, %8
  %10 = load i32, ptr %5, align 4, !tbaa !23
  %11 = shl i32 2, %10
  %12 = sub i32 %11, 1
  %13 = xor i32 %12, -1
  %14 = and i32 %9, %13
  %15 = icmp ne i32 %14, 0
  br i1 %15, label %16, label %23

16:                                               ; preds = %2
  %17 = load i32, ptr %4, align 4, !tbaa !23
  %18 = ashr i32 %17, 31
  %19 = load i32, ptr %5, align 4, !tbaa !23
  %20 = shl i32 1, %19
  %21 = sub nsw i32 %20, 1
  %22 = xor i32 %18, %21
  store i32 %22, ptr %3, align 4
  br label %25

23:                                               ; preds = %2
  %24 = load i32, ptr %4, align 4, !tbaa !23
  store i32 %24, ptr %3, align 4
  br label %25

25:                                               ; preds = %23, %16
  %26 = load i32, ptr %3, align 4
  ret i32 %26
}

; Function Attrs: inlinehint nounwind uwtable
define internal i32 @norm__(i64 noundef %0, i32 noundef %1) #4 {
  %3 = alloca i32, align 4
  %4 = alloca i64, align 8
  %5 = alloca i32, align 4
  store i64 %0, ptr %4, align 8, !tbaa !34
  store i32 %1, ptr %5, align 4, !tbaa !23
  %6 = load i32, ptr %5, align 4, !tbaa !23
  %7 = icmp sgt i32 %6, 0
  br i1 %7, label %8, label %19

8:                                                ; preds = %2
  %9 = load i64, ptr %4, align 8, !tbaa !34
  %10 = load i32, ptr %5, align 4, !tbaa !23
  %11 = sub nsw i32 %10, 1
  %12 = zext i32 %11 to i64
  %13 = shl i64 1, %12
  %14 = add nsw i64 %9, %13
  %15 = load i32, ptr %5, align 4, !tbaa !23
  %16 = zext i32 %15 to i64
  %17 = ashr i64 %14, %16
  %18 = trunc i64 %17 to i32
  store i32 %18, ptr %3, align 4
  br label %22

19:                                               ; preds = %2
  %20 = load i64, ptr %4, align 8, !tbaa !34
  %21 = trunc i64 %20 to i32
  store i32 %21, ptr %3, align 4
  br label %22

22:                                               ; preds = %19, %8
  %23 = load i32, ptr %3, align 4
  ret i32 %23
}

; Function Attrs: inlinehint nounwind uwtable
define internal i32 @clip23(i32 noundef %0) #4 {
  %2 = alloca i32, align 4
  store i32 %0, ptr %2, align 4, !tbaa !23
  %3 = load i32, ptr %2, align 4, !tbaa !23
  %4 = call i32 @av_clip_intp2_c(i32 noundef %3, i32 noundef 23) #7
  ret i32 %4
}

; Function Attrs: inlinehint nounwind uwtable
define internal i32 @norm21(i64 noundef %0) #4 {
  %2 = alloca i64, align 8
  store i64 %0, ptr %2, align 8, !tbaa !34
  %3 = load i64, ptr %2, align 8, !tbaa !34
  %4 = call i32 @norm__(i64 noundef %3, i32 noundef 21)
  ret i32 %4
}

; Function Attrs: nounwind uwtable
define internal void @synth_filter_fixed(ptr noundef %0, ptr noundef %1, ptr noundef %2, ptr noundef %3, ptr noundef %4, ptr noundef %5, ptr noundef %6) #1 {
  %8 = alloca ptr, align 8
  %9 = alloca ptr, align 8
  %10 = alloca ptr, align 8
  %11 = alloca ptr, align 8
  %12 = alloca ptr, align 8
  %13 = alloca ptr, align 8
  %14 = alloca ptr, align 8
  %15 = alloca ptr, align 8
  %16 = alloca i32, align 4
  %17 = alloca i32, align 4
  %18 = alloca i64, align 8
  %19 = alloca i64, align 8
  %20 = alloca i64, align 8
  %21 = alloca i64, align 8
  store ptr %0, ptr %8, align 8, !tbaa !32
  store ptr %1, ptr %9, align 8, !tbaa !18
  store ptr %2, ptr %10, align 8, !tbaa !18
  store ptr %3, ptr %11, align 8, !tbaa !18
  store ptr %4, ptr %12, align 8, !tbaa !18
  store ptr %5, ptr %13, align 8, !tbaa !18
  store ptr %6, ptr %14, align 8, !tbaa !18
  call void @llvm.lifetime.start.p0(i64 8, ptr %15) #6
  %22 = load ptr, ptr %9, align 8, !tbaa !18
  %23 = load ptr, ptr %10, align 8, !tbaa !18
  %24 = load i32, ptr %23, align 4, !tbaa !23
  %25 = sext i32 %24 to i64
  %26 = getelementptr inbounds i32, ptr %22, i64 %25
  store ptr %26, ptr %15, align 8, !tbaa !18
  call void @llvm.lifetime.start.p0(i64 4, ptr %16) #6
  call void @llvm.lifetime.start.p0(i64 4, ptr %17) #6
  %27 = load ptr, ptr %8, align 8, !tbaa !32
  %28 = getelementptr inbounds nuw %struct.DCADCTContext, ptr %27, i32 0, i32 0
  %29 = getelementptr inbounds [2 x ptr], ptr %28, i64 0, i64 0
  %30 = load ptr, ptr %29, align 8, !tbaa !22
  %31 = load ptr, ptr %15, align 8, !tbaa !18
  %32 = load ptr, ptr %14, align 8, !tbaa !18
  call void %30(ptr noundef %31, ptr noundef %32)
  store i32 0, ptr %16, align 4, !tbaa !23
  br label %33

33:                                               ; preds = %267, %7
  %34 = load i32, ptr %16, align 4, !tbaa !23
  %35 = icmp slt i32 %34, 16
  br i1 %35, label %36, label %270

36:                                               ; preds = %33
  call void @llvm.lifetime.start.p0(i64 8, ptr %18) #6
  %37 = load ptr, ptr %11, align 8, !tbaa !18
  %38 = load i32, ptr %16, align 4, !tbaa !23
  %39 = sext i32 %38 to i64
  %40 = getelementptr inbounds i32, ptr %37, i64 %39
  %41 = load i32, ptr %40, align 4, !tbaa !23
  %42 = sext i32 %41 to i64
  %43 = mul nsw i64 %42, 2097152
  store i64 %43, ptr %18, align 8, !tbaa !34
  call void @llvm.lifetime.start.p0(i64 8, ptr %19) #6
  %44 = load ptr, ptr %11, align 8, !tbaa !18
  %45 = load i32, ptr %16, align 4, !tbaa !23
  %46 = add nsw i32 %45, 16
  %47 = sext i32 %46 to i64
  %48 = getelementptr inbounds i32, ptr %44, i64 %47
  %49 = load i32, ptr %48, align 4, !tbaa !23
  %50 = sext i32 %49 to i64
  %51 = mul nsw i64 %50, 2097152
  store i64 %51, ptr %19, align 8, !tbaa !34
  call void @llvm.lifetime.start.p0(i64 8, ptr %20) #6
  store i64 0, ptr %20, align 8, !tbaa !34
  call void @llvm.lifetime.start.p0(i64 8, ptr %21) #6
  store i64 0, ptr %21, align 8, !tbaa !34
  store i32 0, ptr %17, align 4, !tbaa !23
  br label %52

52:                                               ; preds = %141, %36
  %53 = load i32, ptr %17, align 4, !tbaa !23
  %54 = load ptr, ptr %10, align 8, !tbaa !18
  %55 = load i32, ptr %54, align 4, !tbaa !23
  %56 = sub nsw i32 512, %55
  %57 = icmp slt i32 %53, %56
  br i1 %57, label %58, label %144

58:                                               ; preds = %52
  %59 = load ptr, ptr %12, align 8, !tbaa !18
  %60 = load i32, ptr %16, align 4, !tbaa !23
  %61 = load i32, ptr %17, align 4, !tbaa !23
  %62 = add nsw i32 %60, %61
  %63 = sext i32 %62 to i64
  %64 = getelementptr inbounds i32, ptr %59, i64 %63
  %65 = load i32, ptr %64, align 4, !tbaa !23
  %66 = sext i32 %65 to i64
  %67 = load ptr, ptr %15, align 8, !tbaa !18
  %68 = load i32, ptr %16, align 4, !tbaa !23
  %69 = load i32, ptr %17, align 4, !tbaa !23
  %70 = add nsw i32 %68, %69
  %71 = sext i32 %70 to i64
  %72 = getelementptr inbounds i32, ptr %67, i64 %71
  %73 = load i32, ptr %72, align 4, !tbaa !23
  %74 = sext i32 %73 to i64
  %75 = mul nsw i64 %66, %74
  %76 = load i64, ptr %18, align 8, !tbaa !34
  %77 = add nsw i64 %76, %75
  store i64 %77, ptr %18, align 8, !tbaa !34
  %78 = load ptr, ptr %12, align 8, !tbaa !18
  %79 = load i32, ptr %16, align 4, !tbaa !23
  %80 = load i32, ptr %17, align 4, !tbaa !23
  %81 = add nsw i32 %79, %80
  %82 = add nsw i32 %81, 16
  %83 = sext i32 %82 to i64
  %84 = getelementptr inbounds i32, ptr %78, i64 %83
  %85 = load i32, ptr %84, align 4, !tbaa !23
  %86 = sext i32 %85 to i64
  %87 = load ptr, ptr %15, align 8, !tbaa !18
  %88 = load i32, ptr %16, align 4, !tbaa !23
  %89 = sub nsw i32 15, %88
  %90 = load i32, ptr %17, align 4, !tbaa !23
  %91 = add nsw i32 %89, %90
  %92 = sext i32 %91 to i64
  %93 = getelementptr inbounds i32, ptr %87, i64 %92
  %94 = load i32, ptr %93, align 4, !tbaa !23
  %95 = sext i32 %94 to i64
  %96 = mul nsw i64 %86, %95
  %97 = load i64, ptr %19, align 8, !tbaa !34
  %98 = add nsw i64 %97, %96
  store i64 %98, ptr %19, align 8, !tbaa !34
  %99 = load ptr, ptr %12, align 8, !tbaa !18
  %100 = load i32, ptr %16, align 4, !tbaa !23
  %101 = load i32, ptr %17, align 4, !tbaa !23
  %102 = add nsw i32 %100, %101
  %103 = add nsw i32 %102, 32
  %104 = sext i32 %103 to i64
  %105 = getelementptr inbounds i32, ptr %99, i64 %104
  %106 = load i32, ptr %105, align 4, !tbaa !23
  %107 = sext i32 %106 to i64
  %108 = load ptr, ptr %15, align 8, !tbaa !18
  %109 = load i32, ptr %16, align 4, !tbaa !23
  %110 = add nsw i32 16, %109
  %111 = load i32, ptr %17, align 4, !tbaa !23
  %112 = add nsw i32 %110, %111
  %113 = sext i32 %112 to i64
  %114 = getelementptr inbounds i32, ptr %108, i64 %113
  %115 = load i32, ptr %114, align 4, !tbaa !23
  %116 = sext i32 %115 to i64
  %117 = mul nsw i64 %107, %116
  %118 = load i64, ptr %20, align 8, !tbaa !34
  %119 = add nsw i64 %118, %117
  store i64 %119, ptr %20, align 8, !tbaa !34
  %120 = load ptr, ptr %12, align 8, !tbaa !18
  %121 = load i32, ptr %16, align 4, !tbaa !23
  %122 = load i32, ptr %17, align 4, !tbaa !23
  %123 = add nsw i32 %121, %122
  %124 = add nsw i32 %123, 48
  %125 = sext i32 %124 to i64
  %126 = getelementptr inbounds i32, ptr %120, i64 %125
  %127 = load i32, ptr %126, align 4, !tbaa !23
  %128 = sext i32 %127 to i64
  %129 = load ptr, ptr %15, align 8, !tbaa !18
  %130 = load i32, ptr %16, align 4, !tbaa !23
  %131 = sub nsw i32 31, %130
  %132 = load i32, ptr %17, align 4, !tbaa !23
  %133 = add nsw i32 %131, %132
  %134 = sext i32 %133 to i64
  %135 = getelementptr inbounds i32, ptr %129, i64 %134
  %136 = load i32, ptr %135, align 4, !tbaa !23
  %137 = sext i32 %136 to i64
  %138 = mul nsw i64 %128, %137
  %139 = load i64, ptr %21, align 8, !tbaa !34
  %140 = add nsw i64 %139, %138
  store i64 %140, ptr %21, align 8, !tbaa !34
  br label %141

141:                                              ; preds = %58
  %142 = load i32, ptr %17, align 4, !tbaa !23
  %143 = add nsw i32 %142, 64
  store i32 %143, ptr %17, align 4, !tbaa !23
  br label %52, !llvm.loop !36

144:                                              ; preds = %52
  br label %145

145:                                              ; preds = %235, %144
  %146 = load i32, ptr %17, align 4, !tbaa !23
  %147 = icmp slt i32 %146, 512
  br i1 %147, label %148, label %238

148:                                              ; preds = %145
  %149 = load ptr, ptr %12, align 8, !tbaa !18
  %150 = load i32, ptr %16, align 4, !tbaa !23
  %151 = load i32, ptr %17, align 4, !tbaa !23
  %152 = add nsw i32 %150, %151
  %153 = sext i32 %152 to i64
  %154 = getelementptr inbounds i32, ptr %149, i64 %153
  %155 = load i32, ptr %154, align 4, !tbaa !23
  %156 = sext i32 %155 to i64
  %157 = load ptr, ptr %15, align 8, !tbaa !18
  %158 = load i32, ptr %16, align 4, !tbaa !23
  %159 = load i32, ptr %17, align 4, !tbaa !23
  %160 = add nsw i32 %158, %159
  %161 = sub nsw i32 %160, 512
  %162 = sext i32 %161 to i64
  %163 = getelementptr inbounds i32, ptr %157, i64 %162
  %164 = load i32, ptr %163, align 4, !tbaa !23
  %165 = sext i32 %164 to i64
  %166 = mul nsw i64 %156, %165
  %167 = load i64, ptr %18, align 8, !tbaa !34
  %168 = add nsw i64 %167, %166
  store i64 %168, ptr %18, align 8, !tbaa !34
  %169 = load ptr, ptr %12, align 8, !tbaa !18
  %170 = load i32, ptr %16, align 4, !tbaa !23
  %171 = load i32, ptr %17, align 4, !tbaa !23
  %172 = add nsw i32 %170, %171
  %173 = add nsw i32 %172, 16
  %174 = sext i32 %173 to i64
  %175 = getelementptr inbounds i32, ptr %169, i64 %174
  %176 = load i32, ptr %175, align 4, !tbaa !23
  %177 = sext i32 %176 to i64
  %178 = load ptr, ptr %15, align 8, !tbaa !18
  %179 = load i32, ptr %16, align 4, !tbaa !23
  %180 = sub nsw i32 15, %179
  %181 = load i32, ptr %17, align 4, !tbaa !23
  %182 = add nsw i32 %180, %181
  %183 = sub nsw i32 %182, 512
  %184 = sext i32 %183 to i64
  %185 = getelementptr inbounds i32, ptr %178, i64 %184
  %186 = load i32, ptr %185, align 4, !tbaa !23
  %187 = sext i32 %186 to i64
  %188 = mul nsw i64 %177, %187
  %189 = load i64, ptr %19, align 8, !tbaa !34
  %190 = add nsw i64 %189, %188
  store i64 %190, ptr %19, align 8, !tbaa !34
  %191 = load ptr, ptr %12, align 8, !tbaa !18
  %192 = load i32, ptr %16, align 4, !tbaa !23
  %193 = load i32, ptr %17, align 4, !tbaa !23
  %194 = add nsw i32 %192, %193
  %195 = add nsw i32 %194, 32
  %196 = sext i32 %195 to i64
  %197 = getelementptr inbounds i32, ptr %191, i64 %196
  %198 = load i32, ptr %197, align 4, !tbaa !23
  %199 = sext i32 %198 to i64
  %200 = load ptr, ptr %15, align 8, !tbaa !18
  %201 = load i32, ptr %16, align 4, !tbaa !23
  %202 = add nsw i32 16, %201
  %203 = load i32, ptr %17, align 4, !tbaa !23
  %204 = add nsw i32 %202, %203
  %205 = sub nsw i32 %204, 512
  %206 = sext i32 %205 to i64
  %207 = getelementptr inbounds i32, ptr %200, i64 %206
  %208 = load i32, ptr %207, align 4, !tbaa !23
  %209 = sext i32 %208 to i64
  %210 = mul nsw i64 %199, %209
  %211 = load i64, ptr %20, align 8, !tbaa !34
  %212 = add nsw i64 %211, %210
  store i64 %212, ptr %20, align 8, !tbaa !34
  %213 = load ptr, ptr %12, align 8, !tbaa !18
  %214 = load i32, ptr %16, align 4, !tbaa !23
  %215 = load i32, ptr %17, align 4, !tbaa !23
  %216 = add nsw i32 %214, %215
  %217 = add nsw i32 %216, 48
  %218 = sext i32 %217 to i64
  %219 = getelementptr inbounds i32, ptr %213, i64 %218
  %220 = load i32, ptr %219, align 4, !tbaa !23
  %221 = sext i32 %220 to i64
  %222 = load ptr, ptr %15, align 8, !tbaa !18
  %223 = load i32, ptr %16, align 4, !tbaa !23
  %224 = sub nsw i32 31, %223
  %225 = load i32, ptr %17, align 4, !tbaa !23
  %226 = add nsw i32 %224, %225
  %227 = sub nsw i32 %226, 512
  %228 = sext i32 %227 to i64
  %229 = getelementptr inbounds i32, ptr %222, i64 %228
  %230 = load i32, ptr %229, align 4, !tbaa !23
  %231 = sext i32 %230 to i64
  %232 = mul nsw i64 %221, %231
  %233 = load i64, ptr %21, align 8, !tbaa !34
  %234 = add nsw i64 %233, %232
  store i64 %234, ptr %21, align 8, !tbaa !34
  br label %235

235:                                              ; preds = %148
  %236 = load i32, ptr %17, align 4, !tbaa !23
  %237 = add nsw i32 %236, 64
  store i32 %237, ptr %17, align 4, !tbaa !23
  br label %145, !llvm.loop !37

238:                                              ; preds = %145
  %239 = load i64, ptr %18, align 8, !tbaa !34
  %240 = call i32 @norm21(i64 noundef %239)
  %241 = call i32 @clip23(i32 noundef %240)
  %242 = load ptr, ptr %13, align 8, !tbaa !18
  %243 = load i32, ptr %16, align 4, !tbaa !23
  %244 = sext i32 %243 to i64
  %245 = getelementptr inbounds i32, ptr %242, i64 %244
  store i32 %241, ptr %245, align 4, !tbaa !23
  %246 = load i64, ptr %19, align 8, !tbaa !34
  %247 = call i32 @norm21(i64 noundef %246)
  %248 = call i32 @clip23(i32 noundef %247)
  %249 = load ptr, ptr %13, align 8, !tbaa !18
  %250 = load i32, ptr %16, align 4, !tbaa !23
  %251 = add nsw i32 %250, 16
  %252 = sext i32 %251 to i64
  %253 = getelementptr inbounds i32, ptr %249, i64 %252
  store i32 %248, ptr %253, align 4, !tbaa !23
  %254 = load i64, ptr %20, align 8, !tbaa !34
  %255 = call i32 @norm21(i64 noundef %254)
  %256 = load ptr, ptr %11, align 8, !tbaa !18
  %257 = load i32, ptr %16, align 4, !tbaa !23
  %258 = sext i32 %257 to i64
  %259 = getelementptr inbounds i32, ptr %256, i64 %258
  store i32 %255, ptr %259, align 4, !tbaa !23
  %260 = load i64, ptr %21, align 8, !tbaa !34
  %261 = call i32 @norm21(i64 noundef %260)
  %262 = load ptr, ptr %11, align 8, !tbaa !18
  %263 = load i32, ptr %16, align 4, !tbaa !23
  %264 = add nsw i32 %263, 16
  %265 = sext i32 %264 to i64
  %266 = getelementptr inbounds i32, ptr %262, i64 %265
  store i32 %261, ptr %266, align 4, !tbaa !23
  call void @llvm.lifetime.end.p0(i64 8, ptr %21) #6
  call void @llvm.lifetime.end.p0(i64 8, ptr %20) #6
  call void @llvm.lifetime.end.p0(i64 8, ptr %19) #6
  call void @llvm.lifetime.end.p0(i64 8, ptr %18) #6
  br label %267

267:                                              ; preds = %238
  %268 = load i32, ptr %16, align 4, !tbaa !23
  %269 = add nsw i32 %268, 1
  store i32 %269, ptr %16, align 4, !tbaa !23
  br label %33, !llvm.loop !38

270:                                              ; preds = %33
  %271 = load ptr, ptr %10, align 8, !tbaa !18
  %272 = load i32, ptr %271, align 4, !tbaa !23
  %273 = sub nsw i32 %272, 32
  %274 = and i32 %273, 511
  %275 = load ptr, ptr %10, align 8, !tbaa !18
  store i32 %274, ptr %275, align 4, !tbaa !23
  call void @llvm.lifetime.end.p0(i64 4, ptr %17) #6
  call void @llvm.lifetime.end.p0(i64 4, ptr %16) #6
  call void @llvm.lifetime.end.p0(i64 8, ptr %15) #6
  ret void
}