; Function Attrs: nounwind uwtable
define internal void @synth_filter_fixed(ptr noundef readonly captures(none) %0, ptr noundef %1, ptr noundef captures(none) %2, ptr noundef captures(none) %3, ptr noundef readonly captures(none) %4, ptr noundef writeonly captures(none) %5, ptr noundef %6) #1 {
  %8 = load i32, ptr %2, align 4, !tbaa !12
  %9 = sext i32 %8 to i64
  %10 = getelementptr inbounds i32, ptr %1, i64 %9
  %11 = load ptr, ptr %0, align 8, !tbaa !23
  tail call void %11(ptr noundef %10, ptr noundef %6) #4
  %invariant.gep = getelementptr i8, ptr %10, i64 -2048
  %invariant.gep154 = getelementptr i8, ptr %10, i64 60
  %invariant.gep158 = getelementptr i8, ptr %10, i64 124
  %invariant.gep160 = getelementptr i8, ptr %10, i64 -1988
  %invariant.gep164 = getelementptr i8, ptr %10, i64 -1924
  br label %12

12:                                               ; preds = %7, %._crit_edge
  %indvars.iv134 = phi i64 [ 0, %7 ], [ %indvars.iv.next135, %._crit_edge ]
  %13 = getelementptr inbounds nuw i32, ptr %3, i64 %indvars.iv134
  %14 = load i32, ptr %13, align 4, !tbaa !12
  %15 = sext i32 %14 to i64
  %16 = shl nsw i64 %15, 21
  %17 = or disjoint i64 %indvars.iv134, 16
  %18 = getelementptr inbounds nuw i32, ptr %3, i64 %17
  %19 = load i32, ptr %18, align 4, !tbaa !12
  %20 = sext i32 %19 to i64
  %21 = shl nsw i64 %20, 21
  %22 = load i32, ptr %2, align 4, !tbaa !12
  %23 = icmp slt i32 %22, 512
  br i1 %23, label %.lr.ph.preheader, label %.lr.ph114.preheader

.lr.ph.preheader:                                 ; preds = %12
  %24 = sub nsw i32 512, %22
  %25 = zext nneg i32 %24 to i64
  %invariant.gep156 = getelementptr inbounds nuw i32, ptr %10, i64 %17
  br label %.lr.ph

.preheader:                                       ; preds = %.lr.ph
  %26 = icmp samesign ult i64 %indvars.iv, 448
  br i1 %26, label %.lr.ph114.preheader, label %._crit_edge

.lr.ph114.preheader:                              ; preds = %12, %.preheader
  %.0.lcssa146 = phi i64 [ %58, %.preheader ], [ 0, %12 ]
  %.085.lcssa145 = phi i64 [ %51, %.preheader ], [ 0, %12 ]
  %.087.lcssa144 = phi i64 [ %44, %.preheader ], [ %21, %12 ]
  %.089.lcssa143 = phi i64 [ %36, %.preheader ], [ %16, %12 ]
  %.091.lcssa142 = phi i64 [ %indvars.iv.next, %.preheader ], [ 0, %12 ]
  %27 = and i64 %.091.lcssa142, 4294967295
  %invariant.gep162 = getelementptr i32, ptr %invariant.gep, i64 %17
  br label %.lr.ph114

.lr.ph:                                           ; preds = %.lr.ph.preheader, %.lr.ph
  %indvars.iv = phi i64 [ 0, %.lr.ph.preheader ], [ %indvars.iv.next, %.lr.ph ]
  %.0102 = phi i64 [ 0, %.lr.ph.preheader ], [ %58, %.lr.ph ]
  %.085101 = phi i64 [ 0, %.lr.ph.preheader ], [ %51, %.lr.ph ]
  %.087100 = phi i64 [ %21, %.lr.ph.preheader ], [ %44, %.lr.ph ]
  %.08999 = phi i64 [ %16, %.lr.ph.preheader ], [ %36, %.lr.ph ]
  %28 = or disjoint i64 %indvars.iv, %indvars.iv134
  %29 = getelementptr inbounds nuw i32, ptr %4, i64 %28
  %30 = load i32, ptr %29, align 4, !tbaa !12
  %31 = sext i32 %30 to i64
  %32 = getelementptr inbounds nuw i32, ptr %10, i64 %28
  %33 = load i32, ptr %32, align 4, !tbaa !12
  %34 = sext i32 %33 to i64
  %35 = mul nsw i64 %34, %31
  %36 = add nsw i64 %35, %.08999
  %37 = getelementptr inbounds nuw i8, ptr %29, i64 64
  %38 = load i32, ptr %37, align 4, !tbaa !12
  %39 = sext i32 %38 to i64
  %40 = sub nsw i64 %indvars.iv, %indvars.iv134
  %gep155 = getelementptr i32, ptr %invariant.gep154, i64 %40
  %41 = load i32, ptr %gep155, align 4, !tbaa !12
  %42 = sext i32 %41 to i64
  %43 = mul nsw i64 %42, %39
  %44 = add nsw i64 %43, %.087100
  %45 = getelementptr inbounds nuw i8, ptr %29, i64 128
  %46 = load i32, ptr %45, align 4, !tbaa !12
  %47 = sext i32 %46 to i64
  %gep157 = getelementptr inbounds nuw i32, ptr %invariant.gep156, i64 %indvars.iv
  %48 = load i32, ptr %gep157, align 4, !tbaa !12
  %49 = sext i32 %48 to i64
  %50 = mul nsw i64 %49, %47
  %51 = add nsw i64 %50, %.085101
  %52 = getelementptr inbounds nuw i8, ptr %29, i64 192
  %53 = load i32, ptr %52, align 4, !tbaa !12
  %54 = sext i32 %53 to i64
  %gep159 = getelementptr i32, ptr %invariant.gep158, i64 %40
  %55 = load i32, ptr %gep159, align 4, !tbaa !12
  %56 = sext i32 %55 to i64
  %57 = mul nsw i64 %56, %54
  %58 = add nsw i64 %57, %.0102
  %indvars.iv.next = add nuw nsw i64 %indvars.iv, 64
  %59 = icmp samesign ult i64 %indvars.iv.next, %25
  br i1 %59, label %.lr.ph, label %.preheader, !llvm.loop !24

.lr.ph114:                                        ; preds = %.lr.ph114.preheader, %.lr.ph114
  %indvars.iv130 = phi i64 [ %27, %.lr.ph114.preheader ], [ %indvars.iv.next131, %.lr.ph114 ]
  %.1113 = phi i64 [ %.0.lcssa146, %.lr.ph114.preheader ], [ %89, %.lr.ph114 ]
  %.186112 = phi i64 [ %.085.lcssa145, %.lr.ph114.preheader ], [ %82, %.lr.ph114 ]
  %.188111 = phi i64 [ %.087.lcssa144, %.lr.ph114.preheader ], [ %75, %.lr.ph114 ]
  %.190110 = phi i64 [ %.089.lcssa143, %.lr.ph114.preheader ], [ %67, %.lr.ph114 ]
  %60 = or disjoint i64 %indvars.iv130, %indvars.iv134
  %61 = getelementptr inbounds nuw i32, ptr %4, i64 %60
  %62 = load i32, ptr %61, align 4, !tbaa !12
  %63 = sext i32 %62 to i64
  %gep = getelementptr i32, ptr %invariant.gep, i64 %60
  %64 = load i32, ptr %gep, align 4, !tbaa !12
  %65 = sext i32 %64 to i64
  %66 = mul nsw i64 %65, %63
  %67 = add nsw i64 %66, %.190110
  %68 = getelementptr inbounds nuw i8, ptr %61, i64 64
  %69 = load i32, ptr %68, align 4, !tbaa !12
  %70 = sext i32 %69 to i64
  %71 = sub nsw i64 %indvars.iv130, %indvars.iv134
  %gep161 = getelementptr i32, ptr %invariant.gep160, i64 %71
  %72 = load i32, ptr %gep161, align 4, !tbaa !12
  %73 = sext i32 %72 to i64
  %74 = mul nsw i64 %73, %70
  %75 = add nsw i64 %74, %.188111
  %76 = getelementptr inbounds nuw i8, ptr %61, i64 128
  %77 = load i32, ptr %76, align 4, !tbaa !12
  %78 = sext i32 %77 to i64
  %gep163 = getelementptr i32, ptr %invariant.gep162, i64 %indvars.iv130
  %79 = load i32, ptr %gep163, align 4, !tbaa !12
  %80 = sext i32 %79 to i64
  %81 = mul nsw i64 %80, %78
  %82 = add nsw i64 %81, %.186112
  %83 = getelementptr inbounds nuw i8, ptr %61, i64 192
  %84 = load i32, ptr %83, align 4, !tbaa !12
  %85 = sext i32 %84 to i64
  %gep165 = getelementptr i32, ptr %invariant.gep164, i64 %71
  %86 = load i32, ptr %gep165, align 4, !tbaa !12
  %87 = sext i32 %86 to i64
  %88 = mul nsw i64 %87, %85
  %89 = add nsw i64 %88, %.1113
  %indvars.iv.next131 = add nuw nsw i64 %indvars.iv130, 64
  %90 = icmp samesign ult i64 %indvars.iv130, 448
  br i1 %90, label %.lr.ph114, label %._crit_edge, !llvm.loop !25

._crit_edge:                                      ; preds = %.lr.ph114, %.preheader
  %.190.lcssa = phi i64 [ %36, %.preheader ], [ %67, %.lr.ph114 ]
  %.188.lcssa = phi i64 [ %44, %.preheader ], [ %75, %.lr.ph114 ]
  %.186.lcssa = phi i64 [ %51, %.preheader ], [ %82, %.lr.ph114 ]
  %.1.lcssa = phi i64 [ %58, %.preheader ], [ %89, %.lr.ph114 ]
  %91 = add nsw i64 %.190.lcssa, 1048576
  %92 = lshr i64 %91, 21
  %93 = trunc i64 %92 to i32
  %94 = tail call i32 @llvm.smax.i32(i32 %93, i32 -8388608)
  %.0.i.i = tail call range(i32 -8388608, 8388608) i32 @llvm.smin.i32(i32 %94, i32 8388607)
  %95 = getelementptr inbounds nuw i32, ptr %5, i64 %indvars.iv134
  store i32 %.0.i.i, ptr %95, align 4, !tbaa !12
  %96 = add nsw i64 %.188.lcssa, 1048576
  %97 = lshr i64 %96, 21
  %98 = trunc i64 %97 to i32
  %99 = tail call i32 @llvm.smax.i32(i32 %98, i32 -8388608)
  %.0.i.i97 = tail call range(i32 -8388608, 8388608) i32 @llvm.smin.i32(i32 %99, i32 8388607)
  %100 = getelementptr inbounds nuw i32, ptr %5, i64 %17
  store i32 %.0.i.i97, ptr %100, align 4, !tbaa !12
  %101 = add nsw i64 %.186.lcssa, 1048576
  %102 = lshr i64 %101, 21
  %103 = trunc i64 %102 to i32
  store i32 %103, ptr %13, align 4, !tbaa !12
  %104 = add nsw i64 %.1.lcssa, 1048576
  %105 = lshr i64 %104, 21
  %106 = trunc i64 %105 to i32
  store i32 %106, ptr %18, align 4, !tbaa !12
  %indvars.iv.next135 = add nuw nsw i64 %indvars.iv134, 1
  %exitcond.not = icmp eq i64 %indvars.iv.next135, 16
  br i1 %exitcond.not, label %107, label %12, !llvm.loop !26

107:                                              ; preds = %._crit_edge
  %108 = load i32, ptr %2, align 4, !tbaa !12
  %109 = add i32 %108, 480
  %110 = and i32 %109, 511
  store i32 %110, ptr %2, align 4, !tbaa !12
  ret void
}